ccopy_reg
_reconstructor
p0
(csklearn.linear_model.base
LinearRegression
p1
c__builtin__
object
p2
Ntp3
Rp4
(dp5
S'normalize'
p6
I00
sS'intercept_'
p7
cnumpy.core.multiarray
_reconstruct
p8
(cnumpy
ndarray
p9
(I0
tp10
S'b'
p11
tp12
Rp13
(I1
(I1
tp14
cnumpy
dtype
p15
(S'f8'
p16
I0
I1
tp17
Rp18
(I3
S'<'
p19
NNNI-1
I-1
I0
tp20
bI00
S't\xd2\x8c\x8fH\xc2^\xbf'
p21
tp22
bsS'residues_'
p23
g8
(g9
(I0
tp24
g11
tp25
Rp26
(I1
(I1
tp27
g18
I00
S'zr\x9f\xd4\x1e\xc5r@'
p28
tp29
bsS'fit_intercept'
p30
I01
sS'coef_'
p31
g8
(g9
(I0
tp32
g11
tp33
Rp34
(I1
(I1
I2
tp35
g18
I00
S'\x88\x95\xcf#!O\xf0?d\xfb\x93\xa6E+\xb9\xbf'
p36
tp37
bsS'copy_X'
p38
I01
sS'rank_'
p39
I2
sS'singular_'
p40
g8
(g9
(I0
tp41
g11
tp42
Rp43
(I1
(I2
tp44
g18
I00
S'\xdb\x12\x89\xe3\xd2hQ@\x1e\x8d\xa3\xef\x86N5@'
p45
tp46
bsb.