ccopy_reg
_reconstructor
p0
(csklearn.linear_model.base
LinearRegression
p1
c__builtin__
object
p2
Ntp3
Rp4
(dp5
S'normalize'
p6
I00
sS'intercept_'
p7
cnumpy.core.multiarray
_reconstruct
p8
(cnumpy
ndarray
p9
(I0
tp10
S'b'
p11
tp12
Rp13
(I1
(I1
tp14
cnumpy
dtype
p15
(S'f8'
p16
I0
I1
tp17
Rp18
(I3
S'<'
p19
NNNI-1
I-1
I0
tp20
bI00
S'k\x02\xe7\xd6U\x8b\xd6\xbf'
p21
tp22
bsS'residues_'
p23
g8
(g9
(I0
tp24
g11
tp25
Rp26
(I1
(I1
tp27
g18
I00
S"'\xeb\xa7\xeds?\xeb?"
p28
tp29
bsS'fit_intercept'
p30
I01
sS'coef_'
p31
g8
(g9
(I0
tp32
g11
tp33
Rp34
(I1
(I1
I2
tp35
g18
I00
S'\xeb\xc0\x8e\xe2rL\xf2?\xd8\xce*W2-\xc7?'
p36
tp37
bsS'copy_X'
p38
I01
sS'rank_'
p39
I2
sS'singular_'
p40
g8
(g9
(I0
tp41
g11
tp42
Rp43
(I1
(I2
tp44
g18
I00
S'^\xc7\x91\x89\xeb/\t@j\xae>($\x84\xfc?'
p45
tp46
bsb.