cnumpy.core.multiarray
_reconstruct
p0
(cnumpy
ndarray
p1
(I0
tp2
S'b'
p3
tp4
Rp5
(I1
(I6
tp6
cnumpy
dtype
p7
(S'f8'
p8
I0
I1
tp9
Rp10
(I3
S'<'
p11
NNNI-1
I-1
I0
tp12
bI00
S'\x95nkNYD7\xbf\x00n@\\=w\\?z\xe3\xdc\xd3\x9d\x03\xe0?\xfc/kNYD7?\x00X@\\=w\\\xbf\xf78FX\xc4\xf8\xdf?'
p13
tp14
b.